target datalayout = "e-m:e-p270:32:32-p271:32:32-p272:64:64-i64:64-i128:128-f80:128-n8:16:32:64-S128"
target triple = "x86_64-unknown-linux-gnu"

%"class.std::unique_ptr.10" = type { %"struct.std::__uniq_ptr_data.11" }
%"struct.std::__uniq_ptr_data.11" = type { %"class.std::__uniq_ptr_impl.12" }
%"class.std::__uniq_ptr_impl.12" = type { %"class.std::tuple.13" }
%"class.std::tuple.13" = type { %"struct.std::_Tuple_impl.14" }
%"struct.std::_Tuple_impl.14" = type { %"struct.std::_Head_base.17" }
%"struct.std::_Head_base.17" = type { ptr }
%"class.node::inspector::protocol::ErrorSupport" = type { %"class.std::vector", %"class.std::vector" }
%"class.std::vector" = type { %"struct.std::_Vector_base" }
%"struct.std::_Vector_base" = type { %"struct.std::_Vector_base<std::__cxx11::basic_string<char>, std::allocator<std::__cxx11::basic_string<char>>>::_Vector_impl" }
%"struct.std::_Vector_base<std::__cxx11::basic_string<char>, std::allocator<std::__cxx11::basic_string<char>>>::_Vector_impl" = type { %"struct.std::_Vector_base<std::__cxx11::basic_string<char>, std::allocator<std::__cxx11::basic_string<char>>>::_Vector_impl_data" }
%"struct.std::_Vector_base<std::__cxx11::basic_string<char>, std::allocator<std::__cxx11::basic_string<char>>>::_Vector_impl_data" = type { ptr, ptr, ptr }
%"class.std::unique_ptr.42" = type { %"struct.std::__uniq_ptr_data.43" }
%"struct.std::__uniq_ptr_data.43" = type { %"class.std::__uniq_ptr_impl.44" }
%"class.std::__uniq_ptr_impl.44" = type { %"class.std::tuple.45" }
%"class.std::tuple.45" = type { %"struct.std::_Tuple_impl.46" }
%"struct.std::_Tuple_impl.46" = type { %"struct.std::_Head_base.49" }
%"struct.std::_Head_base.49" = type { ptr }

; Function Attrs: mustprogress nounwind uwtable
define linkonce_odr dso_local noundef nonnull align 1 dereferenceable(1) ptr @_ZNSt10_Head_baseILm1ESt14default_deleteIN4node9inspector8protocol15DictionaryValueEELb1EE7_M_headERS6_(ptr noundef nonnull align 1 dereferenceable(1) %__b) #0 comdat align 2 {
entry:
  %__b.addr = alloca ptr, align 8
  store ptr %__b, ptr %__b.addr, align 8
  %0 = load ptr, ptr %__b.addr, align 8
  ret ptr %0
}

; Function Attrs: mustprogress nounwind uwtable
define linkonce_odr dso_local noundef nonnull align 1 dereferenceable(1) ptr @_ZNSt11_Tuple_implILm1EJSt14default_deleteIN4node9inspector8protocol15DictionaryValueEEEE7_M_headERS6_(ptr noundef nonnull align 1 dereferenceable(1) %__t) #0 comdat align 2 {
entry:
  %__t.addr = alloca ptr, align 8
  store ptr %__t, ptr %__t.addr, align 8
  %0 = load ptr, ptr %__t.addr, align 8
  %call = call noundef nonnull align 1 dereferenceable(1) ptr @_ZNSt10_Head_baseILm1ESt14default_deleteIN4node9inspector8protocol15DictionaryValueEELb1EE7_M_headERS6_(ptr noundef nonnull align 1 dereferenceable(1) %0) #9
  ret ptr %call
}

; Function Attrs: mustprogress nounwind uwtable
define linkonce_odr dso_local noundef nonnull align 8 dereferenceable(8) ptr @_ZNSt10_Head_baseILm0EPN4node9inspector8protocol15DictionaryValueELb0EE7_M_headERS5_(ptr noundef nonnull align 8 dereferenceable(8) %__b) #0 comdat align 2 {
entry:
  %__b.addr = alloca ptr, align 8
  store ptr %__b, ptr %__b.addr, align 8
  %0 = load ptr, ptr %__b.addr, align 8
  %_M_head_impl = getelementptr inbounds %"struct.std::_Head_base.17", ptr %0, i32 0, i32 0
  ret ptr %_M_head_impl
}

; Function Attrs: mustprogress nounwind uwtable
define linkonce_odr dso_local noundef nonnull align 8 dereferenceable(8) ptr @_ZNSt10_Head_baseILm0EPN4node9inspector8protocol15DictionaryValueELb0EE7_M_headERKS5_(ptr noundef nonnull align 8 dereferenceable(8) %__b) #0 comdat align 2 {
entry:
  %__b.addr = alloca ptr, align 8
  store ptr %__b, ptr %__b.addr, align 8
  %0 = load ptr, ptr %__b.addr, align 8
  %_M_head_impl = getelementptr inbounds %"struct.std::_Head_base.17", ptr %0, i32 0, i32 0
  ret ptr %_M_head_impl
}

; Function Attrs: mustprogress nounwind uwtable
define linkonce_odr dso_local noundef nonnull align 1 dereferenceable(1) ptr @_ZSt12__get_helperILm1ESt14default_deleteIN4node9inspector8protocol15DictionaryValueEEJEERT0_RSt11_Tuple_implIXT_EJS6_DpT1_EE(ptr noundef nonnull align 1 dereferenceable(1) %__t) #0 comdat {
entry:
  %__t.addr = alloca ptr, align 8
  store ptr %__t, ptr %__t.addr, align 8
  %0 = load ptr, ptr %__t.addr, align 8
  %call = call noundef nonnull align 1 dereferenceable(1) ptr @_ZNSt11_Tuple_implILm1EJSt14default_deleteIN4node9inspector8protocol15DictionaryValueEEEE7_M_headERS6_(ptr noundef nonnull align 1 dereferenceable(1) %0) #9
  ret ptr %call
}

; Function Attrs: mustprogress nounwind uwtable
define linkonce_odr dso_local noundef nonnull align 8 dereferenceable(8) ptr @_ZNSt11_Tuple_implILm0EJPN4node9inspector8protocol15DictionaryValueESt14default_deleteIS3_EEE7_M_headERS7_(ptr noundef nonnull align 8 dereferenceable(8) %__t) #0 comdat align 2 {
entry:
  %__t.addr = alloca ptr, align 8
  store ptr %__t, ptr %__t.addr, align 8
  %0 = load ptr, ptr %__t.addr, align 8
  %call = call noundef nonnull align 8 dereferenceable(8) ptr @_ZNSt10_Head_baseILm0EPN4node9inspector8protocol15DictionaryValueELb0EE7_M_headERS5_(ptr noundef nonnull align 8 dereferenceable(8) %0) #9
  ret ptr %call
}

; Function Attrs: mustprogress nounwind uwtable
define linkonce_odr dso_local noundef nonnull align 8 dereferenceable(8) ptr @_ZNSt11_Tuple_implILm0EJPN4node9inspector8protocol15DictionaryValueESt14default_deleteIS3_EEE7_M_headERKS7_(ptr noundef nonnull align 8 dereferenceable(8) %__t) #0 comdat align 2 {
entry:
  %__t.addr = alloca ptr, align 8
  store ptr %__t, ptr %__t.addr, align 8
  %0 = load ptr, ptr %__t.addr, align 8
  %call = call noundef nonnull align 8 dereferenceable(8) ptr @_ZNSt10_Head_baseILm0EPN4node9inspector8protocol15DictionaryValueELb0EE7_M_headERKS5_(ptr noundef nonnull align 8 dereferenceable(8) %0) #9
  ret ptr %call
}

; Function Attrs: mustprogress nounwind uwtable
define linkonce_odr dso_local noundef nonnull align 1 dereferenceable(1) ptr @_ZSt3getILm1EJPN4node9inspector8protocol15DictionaryValueESt14default_deleteIS3_EEERNSt13tuple_elementIXT_ESt5tupleIJDpT0_EEE4typeERSB_(ptr noundef nonnull align 8 dereferenceable(8) %__t) #0 comdat {
entry:
  %__t.addr = alloca ptr, align 8
  store ptr %__t, ptr %__t.addr, align 8
  %0 = load ptr, ptr %__t.addr, align 8
  %call = call noundef nonnull align 1 dereferenceable(1) ptr @_ZSt12__get_helperILm1ESt14default_deleteIN4node9inspector8protocol15DictionaryValueEEJEERT0_RSt11_Tuple_implIXT_EJS6_DpT1_EE(ptr noundef nonnull align 1 dereferenceable(1) %0) #9
  ret ptr %call
}

; Function Attrs: mustprogress nounwind uwtable
define linkonce_odr dso_local noundef nonnull align 8 dereferenceable(8) ptr @_ZSt12__get_helperILm0EPN4node9inspector8protocol15DictionaryValueEJSt14default_deleteIS3_EEERT0_RSt11_Tuple_implIXT_EJS7_DpT1_EE(ptr noundef nonnull align 8 dereferenceable(8) %__t) #0 comdat {
entry:
  %__t.addr = alloca ptr, align 8
  store ptr %__t, ptr %__t.addr, align 8
  %0 = load ptr, ptr %__t.addr, align 8
  %call = call noundef nonnull align 8 dereferenceable(8) ptr @_ZNSt11_Tuple_implILm0EJPN4node9inspector8protocol15DictionaryValueESt14default_deleteIS3_EEE7_M_headERS7_(ptr noundef nonnull align 8 dereferenceable(8) %0) #9
  ret ptr %call
}

; Function Attrs: mustprogress nounwind uwtable
define linkonce_odr dso_local noundef nonnull align 8 dereferenceable(8) ptr @_ZSt12__get_helperILm0EPN4node9inspector8protocol15DictionaryValueEJSt14default_deleteIS3_EEERKT0_RKSt11_Tuple_implIXT_EJS7_DpT1_EE(ptr noundef nonnull align 8 dereferenceable(8) %__t) #0 comdat {
entry:
  %__t.addr = alloca ptr, align 8
  store ptr %__t, ptr %__t.addr, align 8
  %0 = load ptr, ptr %__t.addr, align 8
  %call = call noundef nonnull align 8 dereferenceable(8) ptr @_ZNSt11_Tuple_implILm0EJPN4node9inspector8protocol15DictionaryValueESt14default_deleteIS3_EEE7_M_headERKS7_(ptr noundef nonnull align 8 dereferenceable(8) %0) #9
  ret ptr %call
}

; Function Attrs: mustprogress nounwind uwtable
define linkonce_odr dso_local noundef nonnull align 1 dereferenceable(1) ptr @_ZNSt15__uniq_ptr_implIN4node9inspector8protocol15DictionaryValueESt14default_deleteIS3_EE10_M_deleterEv(ptr noundef nonnull align 8 dereferenceable(8) %this) #0 comdat align 2 {
entry:
  %this.addr = alloca ptr, align 8
  store ptr %this, ptr %this.addr, align 8
  %this1 = load ptr, ptr %this.addr, align 8
  %_M_t = getelementptr inbounds %"class.std::__uniq_ptr_impl.12", ptr %this1, i32 0, i32 0
  %call = call noundef nonnull align 1 dereferenceable(1) ptr @_ZSt3getILm1EJPN4node9inspector8protocol15DictionaryValueESt14default_deleteIS3_EEERNSt13tuple_elementIXT_ESt5tupleIJDpT0_EEE4typeERSB_(ptr noundef nonnull align 8 dereferenceable(8) %_M_t) #9
  ret ptr %call
}

; Function Attrs: mustprogress nounwind uwtable
define linkonce_odr dso_local noundef nonnull align 8 dereferenceable(8) ptr @_ZSt3getILm0EJPN4node9inspector8protocol15DictionaryValueESt14default_deleteIS3_EEERNSt13tuple_elementIXT_ESt5tupleIJDpT0_EEE4typeERSB_(ptr noundef nonnull align 8 dereferenceable(8) %__t) #0 comdat {
entry:
  %__t.addr = alloca ptr, align 8
  store ptr %__t, ptr %__t.addr, align 8
  %0 = load ptr, ptr %__t.addr, align 8
  %call = call noundef nonnull align 8 dereferenceable(8) ptr @_ZSt12__get_helperILm0EPN4node9inspector8protocol15DictionaryValueEJSt14default_deleteIS3_EEERT0_RSt11_Tuple_implIXT_EJS7_DpT1_EE(ptr noundef nonnull align 8 dereferenceable(8) %0) #9
  ret ptr %call
}

; Function Attrs: mustprogress nounwind uwtable
define linkonce_odr dso_local noundef nonnull align 8 dereferenceable(8) ptr @_ZSt3getILm0EJPN4node9inspector8protocol15DictionaryValueESt14default_deleteIS3_EEERKNSt13tuple_elementIXT_ESt5tupleIJDpT0_EEE4typeERKSB_(ptr noundef nonnull align 8 dereferenceable(8) %__t) #0 comdat {
entry:
  %__t.addr = alloca ptr, align 8
  store ptr %__t, ptr %__t.addr, align 8
  %0 = load ptr, ptr %__t.addr, align 8
  %call = call noundef nonnull align 8 dereferenceable(8) ptr @_ZSt12__get_helperILm0EPN4node9inspector8protocol15DictionaryValueEJSt14default_deleteIS3_EEERKT0_RKSt11_Tuple_implIXT_EJS7_DpT1_EE(ptr noundef nonnull align 8 dereferenceable(8) %0) #9
  ret ptr %call
}

; Function Attrs: mustprogress nounwind uwtable
define linkonce_odr dso_local void @_ZNKSt14default_deleteIN4node9inspector8protocol15DictionaryValueEEclEPS3_(ptr noundef nonnull align 1 dereferenceable(1) %this, ptr noundef %__ptr) #0 comdat align 2 {
entry:
  %this.addr = alloca ptr, align 8
  %__ptr.addr = alloca ptr, align 8
  store ptr %this, ptr %this.addr, align 8
  store ptr %__ptr, ptr %__ptr.addr, align 8
  %0 = load ptr, ptr %__ptr.addr, align 8
  %isnull = icmp eq ptr %0, null
  br i1 %isnull, label %delete.end, label %delete.notnull

delete.notnull:                                   ; preds = %entry
  %vtable = load ptr, ptr %0, align 8
  %vfn = getelementptr inbounds ptr, ptr %vtable, i64 3
  %1 = load ptr, ptr %vfn, align 8
  call void %1(ptr noundef nonnull align 8 dereferenceable(96) %0) #9
  br label %delete.end

delete.end:                                       ; preds = %delete.notnull, %entry
  ret void
}

; Function Attrs: mustprogress nounwind uwtable
define linkonce_odr dso_local noundef nonnull align 1 dereferenceable(1) ptr @_ZNSt10unique_ptrIN4node9inspector8protocol15DictionaryValueESt14default_deleteIS3_EE11get_deleterEv(ptr noundef nonnull align 8 dereferenceable(8) %this) #0 comdat align 2 {
entry:
  %this.addr = alloca ptr, align 8
  store ptr %this, ptr %this.addr, align 8
  %this1 = load ptr, ptr %this.addr, align 8
  %_M_t = getelementptr inbounds %"class.std::unique_ptr.10", ptr %this1, i32 0, i32 0
  %call = call noundef nonnull align 1 dereferenceable(1) ptr @_ZNSt15__uniq_ptr_implIN4node9inspector8protocol15DictionaryValueESt14default_deleteIS3_EE10_M_deleterEv(ptr noundef nonnull align 8 dereferenceable(8) %_M_t) #9
  ret ptr %call
}

; Function Attrs: mustprogress nounwind uwtable
define linkonce_odr dso_local noundef nonnull align 8 dereferenceable(8) ptr @_ZNSt15__uniq_ptr_implIN4node9inspector8protocol15DictionaryValueESt14default_deleteIS3_EE6_M_ptrEv(ptr noundef nonnull align 8 dereferenceable(8) %this) #0 comdat align 2 {
entry:
  %this.addr = alloca ptr, align 8
  store ptr %this, ptr %this.addr, align 8
  %this1 = load ptr, ptr %this.addr, align 8
  %_M_t = getelementptr inbounds %"class.std::__uniq_ptr_impl.12", ptr %this1, i32 0, i32 0
  %call = call noundef nonnull align 8 dereferenceable(8) ptr @_ZSt3getILm0EJPN4node9inspector8protocol15DictionaryValueESt14default_deleteIS3_EEERNSt13tuple_elementIXT_ESt5tupleIJDpT0_EEE4typeERSB_(ptr noundef nonnull align 8 dereferenceable(8) %_M_t) #9
  ret ptr %call
}

; Function Attrs: mustprogress nounwind uwtable
define linkonce_odr dso_local noundef ptr @_ZNKSt15__uniq_ptr_implIN4node9inspector8protocol15DictionaryValueESt14default_deleteIS3_EE6_M_ptrEv(ptr noundef nonnull align 8 dereferenceable(8) %this) #0 comdat align 2 {
entry:
  %this.addr = alloca ptr, align 8
  store ptr %this, ptr %this.addr, align 8
  %this1 = load ptr, ptr %this.addr, align 8
  %_M_t = getelementptr inbounds %"class.std::__uniq_ptr_impl.12", ptr %this1, i32 0, i32 0
  %call = call noundef nonnull align 8 dereferenceable(8) ptr @_ZSt3getILm0EJPN4node9inspector8protocol15DictionaryValueESt14default_deleteIS3_EEERKNSt13tuple_elementIXT_ESt5tupleIJDpT0_EEE4typeERKSB_(ptr noundef nonnull align 8 dereferenceable(8) %_M_t) #9
  %0 = load ptr, ptr %call, align 8
  ret ptr %0
}

; Function Attrs: mustprogress nounwind uwtable
define linkonce_odr dso_local void @_ZNSt10unique_ptrIN4node9inspector8protocol15DictionaryValueESt14default_deleteIS3_EED2Ev(ptr noundef nonnull align 8 dereferenceable(8) %this) unnamed_addr #0 comdat align 2 {
entry:
  %this.addr = alloca ptr, align 8
  %__ptr = alloca ptr, align 8
  store ptr %this, ptr %this.addr, align 8
  %this1 = load ptr, ptr %this.addr, align 8
  %_M_t = getelementptr inbounds %"class.std::unique_ptr.10", ptr %this1, i32 0, i32 0
  %call = call noundef nonnull align 8 dereferenceable(8) ptr @_ZNSt15__uniq_ptr_implIN4node9inspector8protocol15DictionaryValueESt14default_deleteIS3_EE6_M_ptrEv(ptr noundef nonnull align 8 dereferenceable(8) %_M_t) #9
  store ptr %call, ptr %__ptr, align 8
  %0 = load ptr, ptr %__ptr, align 8
  %1 = load ptr, ptr %0, align 8
  %cmp = icmp ne ptr %1, null
  br i1 %cmp, label %if.then, label %if.end

if.then:                                          ; preds = %entry
  %call2 = call noundef nonnull align 1 dereferenceable(1) ptr @_ZNSt10unique_ptrIN4node9inspector8protocol15DictionaryValueESt14default_deleteIS3_EE11get_deleterEv(ptr noundef nonnull align 8 dereferenceable(8) %this1) #9
  %2 = load ptr, ptr %__ptr, align 8
  %3 = load ptr, ptr %2, align 8
  call void @_ZNKSt14default_deleteIN4node9inspector8protocol15DictionaryValueEEclEPS3_(ptr noundef nonnull align 1 dereferenceable(1) %call2, ptr noundef %3)
  br label %if.end

if.end:                                           ; preds = %if.then, %entry
  %4 = load ptr, ptr %__ptr, align 8
  store ptr null, ptr %4, align 8
  ret void
}

; Function Attrs: mustprogress nounwind uwtable
define linkonce_odr dso_local noundef ptr @_ZNKSt10unique_ptrIN4node9inspector8protocol15DictionaryValueESt14default_deleteIS3_EE3getEv(ptr noundef nonnull align 8 dereferenceable(8) %this) #0 comdat align 2 {
entry:
  %this.addr = alloca ptr, align 8
  store ptr %this, ptr %this.addr, align 8
  %this1 = load ptr, ptr %this.addr, align 8
  %_M_t = getelementptr inbounds %"class.std::unique_ptr.10", ptr %this1, i32 0, i32 0
  %call = call noundef ptr @_ZNKSt15__uniq_ptr_implIN4node9inspector8protocol15DictionaryValueESt14default_deleteIS3_EE6_M_ptrEv(ptr noundef nonnull align 8 dereferenceable(8) %_M_t) #9
  ret ptr %call
}

; Function Attrs: mustprogress nounwind uwtable
define dso_local void @_ZNK4node9inspector8protocol10NodeWorker37ReceivedMessageFromWorkerNotification5cloneEv(ptr noalias sret(%"class.std::unique_ptr.42") align 8 %agg.result, ptr noundef nonnull align 8 dereferenceable(72) %this) #0 align 2 {
entry:
  %result.ptr = alloca ptr, align 8
  %this.addr = alloca ptr, align 8
  %errors = alloca %"class.node::inspector::protocol::ErrorSupport", align 8
  %ref.tmp = alloca %"class.std::unique_ptr.10", align 8
  store ptr %agg.result, ptr %result.ptr, align 8
  store ptr %this, ptr %this.addr, align 8
  %this1 = load ptr, ptr %this.addr, align 8
  call void @_ZN4node9inspector8protocol12ErrorSupportC1Ev(ptr noundef nonnull align 8 dereferenceable(48) %errors)
  call void @_ZNK4node9inspector8protocol10NodeWorker37ReceivedMessageFromWorkerNotification7toValueEv(ptr sret(%"class.std::unique_ptr.10") align 8 %ref.tmp, ptr noundef nonnull align 8 dereferenceable(72) %this1)
  %call = call noundef ptr @_ZNKSt10unique_ptrIN4node9inspector8protocol15DictionaryValueESt14default_deleteIS3_EE3getEv(ptr noundef nonnull align 8 dereferenceable(8) %ref.tmp) #9
  call void @_ZN4node9inspector8protocol10NodeWorker37ReceivedMessageFromWorkerNotification9fromValueEPNS1_5ValueEPNS1_12ErrorSupportE(ptr sret(%"class.std::unique_ptr.42") align 8 %agg.result, ptr noundef %call, ptr noundef %errors)
  call void @_ZNSt10unique_ptrIN4node9inspector8protocol15DictionaryValueESt14default_deleteIS3_EED2Ev(ptr noundef nonnull align 8 dereferenceable(8) %ref.tmp) #9
  call void @_ZN4node9inspector8protocol12ErrorSupportD1Ev(ptr noundef nonnull align 8 dereferenceable(48) %errors) #9
  ret void
}